target datalayout = "e-m:e-p270:32:32-p271:32:32-p272:64:64-i64:64-i128:128-f80:128-n8:16:32:64-S128"
target triple = "x86_64-unknown-linux-gnu"

%struct.CoMutex = type { i32, ptr, %struct.anon.3, %struct.anon.3, i32, i32, ptr }
%struct.anon.3 = type { ptr }
%struct.QemuMutex = type { %union.pthread_mutex_t, i8 }
%union.pthread_mutex_t = type { %struct.__pthread_mutex_s }
%struct.__pthread_mutex_s = type { i32, i32, i32, i32, i32, i16, i16, %struct.__pthread_internal_list }
%struct.__pthread_internal_list = type { ptr, ptr }
%struct.V9fsDir = type { ptr, i32, %struct.CoMutex, %struct.QemuMutex }

@.str.148 = private unnamed_addr constant [21 x i8] c"../qemu/hw/9pfs/9p.h\00", align 1
@__func__.v9fs_readdir_lock = private unnamed_addr constant [18 x i8] c"v9fs_readdir_lock\00", align 1
@qemu_mutex_lock_func = external global ptr, align 8

; Function Attrs: nounwind sspstrong uwtable
define internal void @v9fs_readdir_lock(ptr noundef %dir) #0 {
entry:
  %dir.addr = alloca ptr, align 8
  %_f = alloca ptr, align 8
  %tmp = alloca ptr, align 8
  %atomic-temp = alloca ptr, align 8
  store ptr %dir, ptr %dir.addr, align 8
  %0 = load ptr, ptr %dir.addr, align 8
  %proto_version = getelementptr inbounds %struct.V9fsDir, ptr %0, i32 0, i32 1
  %1 = load i32, ptr %proto_version, align 8
  %cmp = icmp eq i32 %1, 1
  br i1 %cmp, label %if.then, label %if.else

if.then:                                          ; preds = %entry
  %2 = load ptr, ptr %dir.addr, align 8
  %readdir_mutex_u = getelementptr inbounds %struct.V9fsDir, ptr %2, i32 0, i32 2
  call void @qemu_co_mutex_lock(ptr noundef %readdir_mutex_u)
  br label %if.end

if.else:                                          ; preds = %entry
  br label %while.cond

while.cond:                                       ; preds = %do.end, %if.else
  br i1 false, label %while.body, label %while.end

while.body:                                       ; preds = %while.cond
  br label %do.body

do.body:                                          ; preds = %while.body
  call void @g_assertion_message_expr(ptr noundef null, ptr noundef @.str.148, i32 noundef 211, ptr noundef @__func__.v9fs_readdir_lock, ptr noundef null) #17
  unreachable

do.end:                                           ; No predecessors!
  br label %while.cond

while.end:                                        ; preds = %while.cond
  %3 = load atomic i64, ptr @qemu_mutex_lock_func monotonic, align 8
  store i64 %3, ptr %atomic-temp, align 8
  %4 = load ptr, ptr %atomic-temp, align 8
  store ptr %4, ptr %tmp, align 8
  %5 = load ptr, ptr %tmp, align 8
  store ptr %5, ptr %_f, align 8
  %6 = load ptr, ptr %_f, align 8
  %7 = load ptr, ptr %dir.addr, align 8
  %readdir_mutex_L = getelementptr inbounds %struct.V9fsDir, ptr %7, i32 0, i32 3
  call void %6(ptr noundef %readdir_mutex_L, ptr noundef @.str.148, i32 noundef 211)
  br label %if.end

if.end:                                           ; preds = %while.end, %if.then
  ret void
}