; Function Attrs: nounwind sspstrong uwtable
define internal void @v9fs_readdir_lock(ptr noundef %dir) #0 {
entry:
  %proto_version = getelementptr inbounds nuw i8, ptr %dir, i64 8
  %0 = load i32, ptr %proto_version, align 8
  %cmp = icmp eq i32 %0, 1
  br i1 %cmp, label %if.then, label %while.end

if.then:                                          ; preds = %entry
  %readdir_mutex_u = getelementptr inbounds nuw i8, ptr %dir, i64 16
  tail call void @qemu_co_mutex_lock(ptr noundef nonnull %readdir_mutex_u) #24
  br label %if.end

while.end:                                        ; preds = %entry
  %1 = load atomic i64, ptr @qemu_mutex_lock_func monotonic, align 8
  %2 = inttoptr i64 %1 to ptr
  %readdir_mutex_L = getelementptr inbounds nuw i8, ptr %dir, i64 64
  tail call void %2(ptr noundef nonnull %readdir_mutex_L, ptr noundef nonnull @.str.148, i32 noundef 211) #24
  br label %if.end

if.end:                                           ; preds = %while.end, %if.then
  ret void
}